; Function Attrs: mustprogress nounwind uwtable
define hidden void @_ZN17JfrThreadSampling16update_run_stateEll(ptr nocapture noundef nonnull align 8 dereferenceable(8) %0, i64 noundef %1, i64 noundef %2) local_unnamed_addr #0 align 2 {
  %4 = icmp sgt i64 %1, 0
  %5 = icmp sgt i64 %2, 0
  %or.cond = or i1 %4, %5
  %6 = load ptr, ptr %0, align 8
  %7 = icmp eq ptr %6, null
  br i1 %or.cond, label %8, label %21

8:                                                ; preds = %3
  br i1 %7, label %9, label %10

9:                                                ; preds = %8
  tail call void @_ZN17JfrThreadSampling14create_samplerEll(ptr noundef nonnull align 8 dereferenceable(8) %0, i64 noundef %1, i64 noundef %2)
  br label %_ZN16JfrThreadSampler6enrollEv.exit

10:                                               ; preds = %8
  %11 = getelementptr inbounds i8, ptr %6, i64 992
  %12 = load volatile i8, ptr %11, align 8
  %13 = trunc i8 %12 to i1
  br i1 %13, label %14, label %_ZN16JfrThreadSampler6enrollEv.exit

14:                                               ; preds = %10
  %15 = load volatile ptr, ptr getelementptr inbounds (i8, ptr @_ZN16LogTagSetMappingILN6LogTag4typeE64ELS1_0ELS1_0ELS1_0ELS1_0ELS1_0EE7_tagsetE, i64 48), align 8
  %.not.i = icmp eq ptr %15, null
  br i1 %.not.i, label %17, label %16

16:                                               ; preds = %14
  tail call void (ptr, ...) @_ZN7LogImplILN6LogTag4typeE64ELS1_0ELS1_0ELS1_0ELS1_0ELS1_0EE5writeILN8LogLevel4typeE1EEEvPKcz(ptr noundef nonnull @.str.9)
  br label %17

17:                                               ; preds = %16, %14
  %18 = getelementptr inbounds i8, ptr %6, i64 896
  tail call void @_ZN14PosixSemaphore6signalEj(ptr noundef nonnull align 8 dereferenceable(32) %18, i32 noundef 1) #18
  store volatile i8 0, ptr %11, align 8
  br label %_ZN16JfrThreadSampler6enrollEv.exit

_ZN16JfrThreadSampler6enrollEv.exit:              ; preds = %17, %10, %9
  %19 = load volatile ptr, ptr getelementptr inbounds (i8, ptr @_ZN16LogTagSetMappingILN6LogTag4typeE64ELS1_0ELS1_0ELS1_0ELS1_0ELS1_0EE7_tagsetE, i64 48), align 8
  %.not.i8 = icmp eq ptr %19, null
  br i1 %.not.i8, label %_ZL3logll.exit, label %20

20:                                               ; preds = %_ZN16JfrThreadSampler6enrollEv.exit
  tail call void (ptr, ...) @_ZN7LogImplILN6LogTag4typeE64ELS1_0ELS1_0ELS1_0ELS1_0ELS1_0EE5writeILN8LogLevel4typeE1EEEvPKcz(ptr noundef nonnull @.str.18, i64 noundef %1, i64 noundef %2)
  br label %_ZL3logll.exit

21:                                               ; preds = %3
  br i1 %7, label %_ZL3logll.exit, label %22

22:                                               ; preds = %21
  %23 = getelementptr inbounds i8, ptr %6, i64 992
  %24 = load volatile i8, ptr %23, align 8
  %25 = trunc i8 %24 to i1
  br i1 %25, label %_ZL3logll.exit, label %26

26:                                               ; preds = %22
  %27 = getelementptr inbounds i8, ptr %6, i64 896
  tail call void @_ZN14PosixSemaphore4waitEv(ptr noundef nonnull align 8 dereferenceable(32) %27) #18
  store volatile i8 1, ptr %23, align 8
  %28 = load volatile ptr, ptr getelementptr inbounds (i8, ptr @_ZN16LogTagSetMappingILN6LogTag4typeE64ELS1_0ELS1_0ELS1_0ELS1_0ELS1_0EE7_tagsetE, i64 48), align 8
  %.not.i9 = icmp eq ptr %28, null
  br i1 %.not.i9, label %_ZL3logll.exit, label %29

29:                                               ; preds = %26
  tail call void (ptr, ...) @_ZN7LogImplILN6LogTag4typeE64ELS1_0ELS1_0ELS1_0ELS1_0ELS1_0EE5writeILN8LogLevel4typeE1EEEvPKcz(ptr noundef nonnull @.str.10)
  br label %_ZL3logll.exit

_ZL3logll.exit:                                   ; preds = %29, %26, %22, %20, %_ZN16JfrThreadSampler6enrollEv.exit, %21
  ret void
}